target datalayout = "e-m:e-p270:32:32-p271:32:32-p272:64:64-i64:64-i128:128-f80:128-n8:16:32:64-S128"
target triple = "x86_64-pc-linux-gnu"

@hf_gryphon_ldf_get_frame_num_signals = internal global i32 0, align 4
@hf_gryphon_cnvt_valuef = internal global i32 0, align 4
@hf_gryphon_cnvt_valuei = internal global i32 0, align 4
@hf_gryphon_cnvt_values = internal global i32 0, align 4
@hf_gryphon_cnvt_flags_getvalues = internal global i32 0, align 4
@.str.1068 = private unnamed_addr constant [5 x i8] c"%.1f\00", align 1

; Function Attrs: null_pointer_is_valid sspstrong uwtable
define internal i32 @resp_cnvt_get_values(ptr noundef %0, i32 noundef %1, ptr noundef %2) #0 {
  %4 = alloca ptr, align 8
  %5 = alloca i32, align 4
  %6 = alloca ptr, align 8
  %7 = alloca i8, align 1
  %8 = alloca i8, align 1
  %9 = alloca float, align 4
  %10 = alloca i32, align 4
  %11 = alloca i32, align 4
  store ptr %0, ptr %4, align 8
  store i32 %1, ptr %5, align 4
  store ptr %2, ptr %6, align 8
  call void @llvm.lifetime.start.p0(i64 1, ptr %7) #7
  call void @llvm.lifetime.start.p0(i64 1, ptr %8) #7
  call void @llvm.lifetime.start.p0(i64 4, ptr %9) #7
  call void @llvm.lifetime.start.p0(i64 4, ptr %10) #7
  call void @llvm.lifetime.start.p0(i64 4, ptr %11) #7
  %12 = load ptr, ptr %4, align 8
  %13 = load i32, ptr %5, align 4
  %14 = call zeroext i8 @tvb_get_uint8(ptr noundef %12, i32 noundef %13)
  store i8 %14, ptr %8, align 1
  %15 = load ptr, ptr %6, align 8
  %16 = load i32, ptr @hf_gryphon_ldf_get_frame_num_signals, align 4
  %17 = load ptr, ptr %4, align 8
  %18 = load i32, ptr %5, align 4
  %19 = call ptr @proto_tree_add_item(ptr noundef %15, i32 noundef %16, ptr noundef %17, i32 noundef %18, i32 noundef 1, i32 noundef 0)
  %20 = load i32, ptr %5, align 4
  %21 = add i32 %20, 1
  store i32 %21, ptr %5, align 4
  store i32 0, ptr %10, align 4
  br label %22

22:                                               ; preds = %84, %3
  %23 = load i32, ptr %10, align 4
  %24 = load i8, ptr %8, align 1
  %25 = zext i8 %24 to i32
  %26 = icmp slt i32 %23, %25
  br i1 %26, label %27, label %87

27:                                               ; preds = %22
  %28 = load ptr, ptr %4, align 8
  %29 = load i32, ptr %5, align 4
  %30 = call zeroext i8 @tvb_get_uint8(ptr noundef %28, i32 noundef %29)
  store i8 %30, ptr %7, align 1
  %31 = load ptr, ptr %6, align 8
  %32 = load i32, ptr @hf_gryphon_cnvt_flags_getvalues, align 4
  %33 = load ptr, ptr %4, align 8
  %34 = load i32, ptr %5, align 4
  %35 = call ptr @proto_tree_add_item(ptr noundef %31, i32 noundef %32, ptr noundef %33, i32 noundef %34, i32 noundef 1, i32 noundef 0)
  %36 = load i32, ptr %5, align 4
  %37 = add i32 %36, 1
  store i32 %37, ptr %5, align 4
  %38 = load i8, ptr %7, align 1
  %39 = zext i8 %38 to i32
  %40 = and i32 %39, 1
  %41 = icmp ne i32 %40, 0
  br i1 %41, label %42, label %56

42:                                               ; preds = %27
  %43 = load ptr, ptr %4, align 8
  %44 = load i32, ptr %5, align 4
  %45 = call float @tvb_get_ntohieee_float(ptr noundef %43, i32 noundef %44)
  store float %45, ptr %9, align 4
  %46 = load ptr, ptr %6, align 8
  %47 = load i32, ptr @hf_gryphon_cnvt_valuef, align 4
  %48 = load ptr, ptr %4, align 8
  %49 = load i32, ptr %5, align 4
  %50 = load float, ptr %9, align 4
  %51 = load float, ptr %9, align 4
  %52 = fpext float %51 to double
  %53 = call ptr (ptr, i32, ptr, i32, i32, float, ptr, ...) @proto_tree_add_float_format_value(ptr noundef %46, i32 noundef %47, ptr noundef %48, i32 noundef %49, i32 noundef 4, float noundef %50, ptr noundef @.str.1068, double noundef %52)
  %54 = load i32, ptr %5, align 4
  %55 = add i32 %54, 4
  store i32 %55, ptr %5, align 4
  br label %56

56:                                               ; preds = %42, %27
  %57 = load i8, ptr %7, align 1
  %58 = zext i8 %57 to i32
  %59 = and i32 %58, 2
  %60 = icmp ne i32 %59, 0
  br i1 %60, label %61, label %69

61:                                               ; preds = %56
  %62 = load ptr, ptr %6, align 8
  %63 = load i32, ptr @hf_gryphon_cnvt_valuei, align 4
  %64 = load ptr, ptr %4, align 8
  %65 = load i32, ptr %5, align 4
  %66 = call ptr @proto_tree_add_item(ptr noundef %62, i32 noundef %63, ptr noundef %64, i32 noundef %65, i32 noundef 4, i32 noundef 0)
  %67 = load i32, ptr %5, align 4
  %68 = add i32 %67, 4
  store i32 %68, ptr %5, align 4
  br label %69

69:                                               ; preds = %61, %56
  %70 = load i8, ptr %7, align 1
  %71 = zext i8 %70 to i32
  %72 = and i32 %71, 4
  %73 = icmp ne i32 %72, 0
  br i1 %73, label %74, label %83

74:                                               ; preds = %69
  %75 = load ptr, ptr %6, align 8
  %76 = load i32, ptr @hf_gryphon_cnvt_values, align 4
  %77 = load ptr, ptr %4, align 8
  %78 = load i32, ptr %5, align 4
  %79 = call ptr @proto_tree_add_item_ret_length(ptr noundef %75, i32 noundef %76, ptr noundef %77, i32 noundef %78, i32 noundef -1, i32 noundef 0, ptr noundef %11)
  %80 = load i32, ptr %11, align 4
  %81 = load i32, ptr %5, align 4
  %82 = add i32 %81, %80
  store i32 %82, ptr %5, align 4
  br label %83

83:                                               ; preds = %74, %69
  br label %84

84:                                               ; preds = %83
  %85 = load i32, ptr %10, align 4
  %86 = add i32 %85, 1
  store i32 %86, ptr %10, align 4
  br label %22, !llvm.loop !40

87:                                               ; preds = %22
  %88 = load i32, ptr %5, align 4
  call void @llvm.lifetime.end.p0(i64 4, ptr %11) #7
  call void @llvm.lifetime.end.p0(i64 4, ptr %10) #7
  call void @llvm.lifetime.end.p0(i64 4, ptr %9) #7
  call void @llvm.lifetime.end.p0(i64 1, ptr %8) #7
  call void @llvm.lifetime.end.p0(i64 1, ptr %7) #7
  ret i32 %88
}