; Function Attrs: null_pointer_is_valid sspstrong uwtable
define internal fastcc i32 @resp_cnvt_get_values(ptr noundef %0, ptr noundef %1) unnamed_addr #0 {
  %3 = alloca i32, align 4
  call void @llvm.lifetime.start.p0(i64 4, ptr nonnull %3) #5
  %4 = tail call zeroext i8 @tvb_get_uint8(ptr noundef %0, i32 noundef 16)
  %5 = load i32, ptr @hf_gryphon_ldf_get_frame_num_signals, align 4
  %6 = tail call ptr @proto_tree_add_item(ptr noundef %1, i32 noundef %5, ptr noundef %0, i32 noundef 16, i32 noundef 1, i32 noundef 0)
  %7 = zext i8 %4 to i32
  %.not39 = icmp eq i8 %4, 0
  br i1 %.not39, label %._crit_edge, label %.lr.ph

.lr.ph:                                           ; preds = %2, %33
  %.038 = phi i32 [ %34, %33 ], [ 0, %2 ]
  %.03437 = phi i32 [ %.3, %33 ], [ 17, %2 ]
  %8 = call zeroext i8 @tvb_get_uint8(ptr noundef %0, i32 noundef %.03437)
  %9 = load i32, ptr @hf_gryphon_cnvt_flags_getvalues, align 4
  %10 = call ptr @proto_tree_add_item(ptr noundef %1, i32 noundef %9, ptr noundef %0, i32 noundef %.03437, i32 noundef 1, i32 noundef 0)
  %11 = add i32 %.03437, 1
  %12 = zext i8 %8 to i32
  %13 = and i32 %12, 1
  %.not = icmp eq i32 %13, 0
  br i1 %.not, label %20, label %14

14:                                               ; preds = %.lr.ph
  %15 = call float @tvb_get_ntohieee_float(ptr noundef %0, i32 noundef %11)
  %16 = load i32, ptr @hf_gryphon_cnvt_valuef, align 4
  %17 = fpext float %15 to double
  %18 = call ptr (ptr, i32, ptr, i32, i32, float, ptr, ...) @proto_tree_add_float_format_value(ptr noundef %1, i32 noundef %16, ptr noundef %0, i32 noundef %11, i32 noundef 4, float noundef %15, ptr noundef nonnull @.str.1068, double noundef %17)
  %19 = add i32 %.03437, 5
  br label %20

20:                                               ; preds = %14, %.lr.ph
  %.1 = phi i32 [ %19, %14 ], [ %11, %.lr.ph ]
  %21 = and i32 %12, 2
  %.not35 = icmp eq i32 %21, 0
  br i1 %.not35, label %26, label %22

22:                                               ; preds = %20
  %23 = load i32, ptr @hf_gryphon_cnvt_valuei, align 4
  %24 = call ptr @proto_tree_add_item(ptr noundef %1, i32 noundef %23, ptr noundef %0, i32 noundef %.1, i32 noundef 4, i32 noundef 0)
  %25 = add i32 %.1, 4
  br label %26

26:                                               ; preds = %22, %20
  %.2 = phi i32 [ %25, %22 ], [ %.1, %20 ]
  %27 = and i32 %12, 4
  %.not36 = icmp eq i32 %27, 0
  br i1 %.not36, label %33, label %28

28:                                               ; preds = %26
  %29 = load i32, ptr @hf_gryphon_cnvt_values, align 4
  %30 = call ptr @proto_tree_add_item_ret_length(ptr noundef %1, i32 noundef %29, ptr noundef %0, i32 noundef %.2, i32 noundef -1, i32 noundef 0, ptr noundef nonnull %3)
  %31 = load i32, ptr %3, align 4
  %32 = add i32 %31, %.2
  br label %33

33:                                               ; preds = %26, %28
  %.3 = phi i32 [ %32, %28 ], [ %.2, %26 ]
  %34 = add nuw nsw i32 %.038, 1
  %exitcond.not = icmp eq i32 %34, %7
  br i1 %exitcond.not, label %._crit_edge, label %.lr.ph, !llvm.loop !40

._crit_edge:                                      ; preds = %33, %2
  %.034.lcssa = phi i32 [ 17, %2 ], [ %.3, %33 ]
  call void @llvm.lifetime.end.p0(i64 4, ptr nonnull %3) #5
  ret i32 %.034.lcssa
}